; Function Attrs: mustprogress nounwind uwtable
define hidden noundef zeroext i1 @_ZNK15ciInstanceKlass12is_box_klassEv(ptr noundef nonnull align 8 dereferenceable(144) %0) local_unnamed_addr #0 align 2 {
  %2 = getelementptr inbounds i8, ptr %0, i64 48
  %3 = load ptr, ptr %2, align 8
  %4 = icmp eq ptr %3, null
  br i1 %4, label %5, label %_ZNK15ciInstanceKlass14box_klass_typeEv.exit

5:                                                ; preds = %1
  %6 = getelementptr inbounds i8, ptr %0, i64 16
  %7 = load ptr, ptr %6, align 8
  %.not.i.i = icmp eq ptr %7, null
  br i1 %.not.i.i, label %_ZNK10ciMetadata9is_loadedEv.exit.i, label %_ZNK10ciMetadata9is_loadedEv.exit.thread.i

_ZNK10ciMetadata9is_loadedEv.exit.i:              ; preds = %5
  %8 = load ptr, ptr %0, align 8
  %9 = getelementptr inbounds i8, ptr %8, i64 32
  %10 = load ptr, ptr %9, align 8
  %11 = tail call noundef zeroext i1 %10(ptr noundef nonnull align 8 dereferenceable(24) %0) #11
  br i1 %11, label %_ZNK10ciMetadata9is_loadedEv.exit._ZNK10ciMetadata9is_loadedEv.exit.thread_crit_edge.i, label %_ZNK15ciInstanceKlass14box_klass_typeEv.exit

_ZNK10ciMetadata9is_loadedEv.exit._ZNK10ciMetadata9is_loadedEv.exit.thread_crit_edge.i: ; preds = %_ZNK10ciMetadata9is_loadedEv.exit.i
  %.pre.i = load ptr, ptr %6, align 8
  br label %_ZNK10ciMetadata9is_loadedEv.exit.thread.i

_ZNK10ciMetadata9is_loadedEv.exit.thread.i:       ; preds = %_ZNK10ciMetadata9is_loadedEv.exit._ZNK10ciMetadata9is_loadedEv.exit.thread_crit_edge.i, %5
  %12 = phi ptr [ %.pre.i, %_ZNK10ciMetadata9is_loadedEv.exit._ZNK10ciMetadata9is_loadedEv.exit.thread_crit_edge.i ], [ %7, %5 ]
  %13 = tail call noundef zeroext i8 @_ZN9vmClasses14box_klass_typeEP5Klass(ptr noundef %12) #11
  %14 = add i8 %13, -4
  %15 = icmp ult i8 %14, 8
  br label %_ZNK15ciInstanceKlass14box_klass_typeEv.exit

_ZNK15ciInstanceKlass14box_klass_typeEv.exit:     ; preds = %1, %_ZNK10ciMetadata9is_loadedEv.exit.i, %_ZNK10ciMetadata9is_loadedEv.exit.thread.i
  %.0.i = phi i1 [ %15, %_ZNK10ciMetadata9is_loadedEv.exit.thread.i ], [ false, %_ZNK10ciMetadata9is_loadedEv.exit.i ], [ false, %1 ]
  ret i1 %.0.i
}